; ModuleID = 'bench/linux/original/ebda.ll'
source_filename = "bench/linux/original/ebda.ll"
target datalayout = "e-m:e-p270:32:32-p271:32:32-p272:64:64-i64:64-i128:128-f80:128-n8:16:32:64-S128"
target triple = "x86_64-unknown-linux-gnu"

%struct.x86_platform_ops = type { ptr, ptr, ptr, ptr, ptr, ptr, ptr, ptr, ptr, ptr, ptr, %struct.x86_legacy_features, ptr, ptr, ptr, %struct.x86_hyper_runtime, %struct.x86_guest }
%struct.x86_legacy_features = type { i32, i32, i32, i32, i32, %struct.x86_legacy_devices }
%struct.x86_legacy_devices = type { i32 }
%struct.x86_hyper_runtime = type { ptr, ptr, ptr, ptr }
%struct.x86_guest = type { ptr, ptr, ptr, ptr }

@x86_platform = external dso_local local_unnamed_addr global %struct.x86_platform_ops, align 8
@page_offset_base = external dso_local local_unnamed_addr global i64, align 8

; Function Attrs: cold fn_ret_thunk_extern nounwind null_pointer_is_valid optsize
define dso_local void @reserve_bios_regions() local_unnamed_addr #0 section ".init.text" align 16 {
  %1 = load i32, ptr getelementptr inbounds (%struct.x86_platform_ops, ptr @x86_platform, i64 0, i32 11, i32 4), align 8
  %2 = icmp eq i32 %1, 0
  br i1 %2, label %25, label %3

3:                                                ; preds = %0
  %4 = load i64, ptr @page_offset_base, align 8
  %5 = add i64 %4, 1043
  %6 = inttoptr i64 %5 to ptr
  %7 = load i16, ptr %6, align 2
  %8 = zext i16 %7 to i32
  %9 = shl nuw nsw i32 %8, 10
  %10 = add i16 %7, -637
  %11 = icmp ult i16 %10, -509
  %12 = select i1 %11, i32 651264, i32 %9
  %13 = add i64 %4, 1038
  %14 = inttoptr i64 %13 to ptr
  %15 = load i16, ptr %14, align 2
  %16 = zext i16 %15 to i32
  %17 = shl nuw nsw i32 %16, 4
  %18 = icmp ugt i16 %15, 8191
  %19 = tail call i32 @llvm.umin.i32(i32 %17, i32 %12)
  %20 = select i1 %18, i32 %19, i32 %12
  %21 = zext nneg i32 %20 to i64
  %22 = sub nsw i32 1048576, %20
  %23 = zext i32 %22 to i64
  %24 = tail call i32 @memblock_reserve(i64 noundef %21, i64 noundef %23) #3
  br label %25

25:                                               ; preds = %3, %0
  ret void
}

; Function Attrs: null_pointer_is_valid
declare dso_local i32 @memblock_reserve(i64 noundef, i64 noundef) local_unnamed_addr #1

; Function Attrs: mustprogress nocallback nofree nosync nounwind speculatable willreturn memory(none)
declare i32 @llvm.umin.i32(i32, i32) #2


!llvm.module.flags = !{!0, !1, !2, !3, !4}

!0 = !{i32 1, !"wchar_size", i32 2}
!1 = !{i32 8, !"cf-protection-branch", i32 1}
!2 = !{i32 4, !"function_return_thunk_extern", i32 1}
!3 = !{i32 4, !"indirect_branch_cs_prefix", i32 1}
!4 = !{i32 4, !"SkipRaxSetup", i32 1}
